target datalayout = "e-m:e-p270:32:32-p271:32:32-p272:64:64-i64:64-i128:128-f80:128-n8:16:32:64-S128"
target triple = "x86_64-pc-linux-gnu"

%"class.icu_77::Package" = type <{ [64 x i8], [64 x i8], ptr, [1024 x i8], i32, i32, i8, i8, i8, i8, i32, i32, [4 x i8], ptr, i32, i32, [100000 x i8], [100000 x i8], i32, [4 x i8], ptr, ptr, i32, i32, i32, i8, [3 x i8] }>

@stderr = external global ptr, align 8
@.str = private unnamed_addr constant [34 x i8] c"icupkg: --toc_prefix %s too long\0A\00", align 1

; Function Attrs: mustprogress nounwind uwtable
define void @_ZN6icu_777Package9setPrefixEPKc(ptr noundef nonnull align 8 dereferenceable(201237) %0, ptr noundef %1) #3 align 2 {
  %3 = alloca ptr, align 8
  %4 = alloca ptr, align 8
  store ptr %0, ptr %3, align 8, !tbaa !26
  store ptr %1, ptr %4, align 8, !tbaa !3
  %5 = load ptr, ptr %3, align 8
  %6 = load ptr, ptr %4, align 8, !tbaa !3
  %7 = call i64 @strlen(ptr noundef %6) #15
  %8 = icmp uge i64 %7, 64
  br i1 %8, label %9, label %13

9:                                                ; preds = %2
  %10 = load ptr, ptr @stderr, align 8, !tbaa !54
  %11 = load ptr, ptr %4, align 8, !tbaa !3
  %12 = call i32 (ptr, ptr, ...) @fprintf(ptr noundef %10, ptr noundef @.str, ptr noundef %11) #13
  call void @exit(i32 noundef 1) #14
  unreachable

13:                                               ; preds = %2
  %14 = getelementptr inbounds nuw %"class.icu_77::Package", ptr %5, i32 0, i32 1
  %15 = getelementptr inbounds [64 x i8], ptr %14, i64 0, i64 0
  %16 = load ptr, ptr %4, align 8, !tbaa !3
  %17 = call ptr @strcpy(ptr noundef %15, ptr noundef %16) #13
  ret void
}