; Function Attrs: mustprogress nofree nounwind uwtable
define void @_ZN6icu_777Package9setPrefixEPKc(ptr noundef nonnull align 8 dereferenceable(201237) %0, ptr noundef %1) local_unnamed_addr #8 align 2 {
  %3 = tail call i64 @strlen(ptr noundef nonnull dereferenceable(1) %1) #24
  %4 = icmp ugt i64 %3, 63
  br i1 %4, label %5, label %8

5:                                                ; preds = %2
  %6 = load ptr, ptr @stderr, align 8, !tbaa !36
  %7 = tail call i32 (ptr, ptr, ...) @fprintf(ptr noundef %6, ptr noundef nonnull @.str, ptr noundef nonnull %1) #25
  tail call void @exit(i32 noundef 1) #26
  unreachable

8:                                                ; preds = %2
  %9 = getelementptr inbounds nuw i8, ptr %0, i64 64
  %10 = tail call ptr @strcpy(ptr noundef nonnull dereferenceable(1) %9, ptr noundef nonnull dereferenceable(1) %1) #23
  ret void
}